target datalayout = "e-m:e-p270:32:32-p271:32:32-p272:64:64-i64:64-i128:128-f80:128-n8:16:32:64-S128"
target triple = "x86_64-unknown-linux-gnu"

%"class.cvc5::internal::NodeTemplate" = type { ptr }
%"class.cvc5::internal::Rational" = type { %class.__gmp_expr }
%class.__gmp_expr = type { [1 x %struct.__mpq_struct] }
%struct.__mpq_struct = type { %struct.__mpz_struct, %struct.__mpz_struct }
%struct.__mpz_struct = type { i32, i32, ptr }
%"class.cvc5::internal::theory::arith::linear::InferBoundsResult" = type { i8, i8, i8, i8, i8, %"class.cvc5::internal::DeltaRational", %"class.cvc5::internal::NodeTemplate", i8, %"class.cvc5::internal::NodeTemplate" }
%"class.cvc5::internal::DeltaRational" = type { %"class.cvc5::internal::Rational", %"class.cvc5::internal::Rational" }

; Function Attrs: mustprogress nounwind uwtable
define linkonce_odr hidden noundef ptr @_ZNK10__gmp_exprIA1_12__mpq_structS1_E9get_mpq_tEv(ptr noundef nonnull align 8 dereferenceable(32) %this) #4 comdat align 2 {
entry:
  %this.addr = alloca ptr, align 8
  store ptr %this, ptr %this.addr, align 8
  %this1 = load ptr, ptr %this.addr, align 8
  %mp = getelementptr inbounds %class.__gmp_expr, ptr %this1, i32 0, i32 0
  %arraydecay = getelementptr inbounds [1 x %struct.__mpq_struct], ptr %mp, i64 0, i64 0
  ret ptr %arraydecay
}

; Function Attrs: mustprogress uwtable
define linkonce_odr hidden noundef i32 @_ZNK4cvc58internal8Rational3sgnEv(ptr noundef nonnull align 8 dereferenceable(32) %this) #5 comdat align 2 {
entry:
  %this.addr = alloca ptr, align 8
  store ptr %this, ptr %this.addr, align 8
  %this1 = load ptr, ptr %this.addr, align 8
  %d_value = getelementptr inbounds %"class.cvc5::internal::Rational", ptr %this1, i32 0, i32 0
  %call = call noundef ptr @_ZNK10__gmp_exprIA1_12__mpq_structS1_E9get_mpq_tEv(ptr noundef nonnull align 8 dereferenceable(32) %d_value)
  %_mp_num = getelementptr inbounds %struct.__mpq_struct, ptr %call, i32 0, i32 0
  %_mp_size = getelementptr inbounds %struct.__mpz_struct, ptr %_mp_num, i32 0, i32 1
  %0 = load i32, ptr %_mp_size, align 4
  %cmp = icmp slt i32 %0, 0
  br i1 %cmp, label %cond.true, label %cond.false

cond.true:                                        ; preds = %entry
  br label %cond.end

cond.false:                                       ; preds = %entry
  %d_value2 = getelementptr inbounds %"class.cvc5::internal::Rational", ptr %this1, i32 0, i32 0
  %call3 = call noundef ptr @_ZNK10__gmp_exprIA1_12__mpq_structS1_E9get_mpq_tEv(ptr noundef nonnull align 8 dereferenceable(32) %d_value2)
  %_mp_num4 = getelementptr inbounds %struct.__mpq_struct, ptr %call3, i32 0, i32 0
  %_mp_size5 = getelementptr inbounds %struct.__mpz_struct, ptr %_mp_num4, i32 0, i32 1
  %1 = load i32, ptr %_mp_size5, align 4
  %cmp6 = icmp sgt i32 %1, 0
  %conv = zext i1 %cmp6 to i32
  br label %cond.end

cond.end:                                         ; preds = %cond.false, %cond.true
  %cond = phi i32 [ -1, %cond.true ], [ %conv, %cond.false ]
  ret i32 %cond
}

; Function Attrs: mustprogress uwtable
define linkonce_odr hidden noundef zeroext i1 @_ZNK4cvc58internal8Rational6isZeroEv(ptr noundef nonnull align 8 dereferenceable(32) %this) #5 comdat align 2 {
entry:
  %this.addr = alloca ptr, align 8
  store ptr %this, ptr %this.addr, align 8
  %this1 = load ptr, ptr %this.addr, align 8
  %call = call noundef i32 @_ZNK4cvc58internal8Rational3sgnEv(ptr noundef nonnull align 8 dereferenceable(32) %this1)
  %cmp = icmp eq i32 %call, 0
  ret i1 %cmp
}

; Function Attrs: mustprogress nounwind uwtable
define linkonce_odr hidden noundef nonnull align 8 dereferenceable(32) ptr @_ZNK4cvc58internal13DeltaRational20getInfinitesimalPartEv(ptr noundef nonnull align 8 dereferenceable(64) %this) #4 comdat align 2 {
entry:
  %this.addr = alloca ptr, align 8
  store ptr %this, ptr %this.addr, align 8
  %this1 = load ptr, ptr %this.addr, align 8
  %k = getelementptr inbounds %"class.cvc5::internal::DeltaRational", ptr %this1, i32 0, i32 1
  ret ptr %k
}

; Function Attrs: mustprogress uwtable
define linkonce_odr hidden noundef zeroext i1 @_ZNK4cvc58internal13DeltaRational19infinitesimalIsZeroEv(ptr noundef nonnull align 8 dereferenceable(64) %this) #5 comdat align 2 {
entry:
  %this.addr = alloca ptr, align 8
  store ptr %this, ptr %this.addr, align 8
  %this1 = load ptr, ptr %this.addr, align 8
  %call = call noundef nonnull align 8 dereferenceable(32) ptr @_ZNK4cvc58internal13DeltaRational20getInfinitesimalPartEv(ptr noundef nonnull align 8 dereferenceable(64) %this1)
  %call2 = call noundef zeroext i1 @_ZNK4cvc58internal8Rational6isZeroEv(ptr noundef nonnull align 8 dereferenceable(32) %call)
  ret i1 %call2
}

; Function Attrs: mustprogress nounwind uwtable
define hidden noundef zeroext i1 @_ZNK4cvc58internal6theory5arith6linear17InferBoundsResult10foundBoundEv(ptr noundef nonnull align 8 dereferenceable(96) %this) #4 align 2 {
entry:
  %this.addr = alloca ptr, align 8
  store ptr %this, ptr %this.addr, align 8
  %this1 = load ptr, ptr %this.addr, align 8
  %d_foundBound = getelementptr inbounds %"class.cvc5::internal::theory::arith::linear::InferBoundsResult", ptr %this1, i32 0, i32 0
  %0 = load i8, ptr %d_foundBound, align 8
  %tobool = trunc i8 %0 to i1
  ret i1 %tobool
}

; Function Attrs: mustprogress uwtable
define hidden noundef zeroext i1 @_ZNK4cvc58internal6theory5arith6linear17InferBoundsResult15boundIsRationalEv(ptr noundef nonnull align 8 dereferenceable(96) %this) #5 align 2 {
entry:
  %this.addr = alloca ptr, align 8
  store ptr %this, ptr %this.addr, align 8
  %this1 = load ptr, ptr %this.addr, align 8
  %call = call noundef zeroext i1 @_ZNK4cvc58internal6theory5arith6linear17InferBoundsResult10foundBoundEv(ptr noundef nonnull align 8 dereferenceable(96) %this1)
  br i1 %call, label %land.rhs, label %land.end

land.rhs:                                         ; preds = %entry
  %d_value = getelementptr inbounds %"class.cvc5::internal::theory::arith::linear::InferBoundsResult", ptr %this1, i32 0, i32 5
  %call2 = call noundef zeroext i1 @_ZNK4cvc58internal13DeltaRational19infinitesimalIsZeroEv(ptr noundef nonnull align 8 dereferenceable(64) %d_value)
  br label %land.end

land.end:                                         ; preds = %land.rhs, %entry
  %0 = phi i1 [ false, %entry ], [ %call2, %land.rhs ]
  ret i1 %0
}