; Function Attrs: mustprogress nofree norecurse nosync nounwind willreturn memory(argmem: read) uwtable
define hidden noundef zeroext i1 @_ZNK4cvc58internal6theory5arith6linear17InferBoundsResult15boundIsRationalEv(ptr noundef nonnull readonly align 8 captures(none) dereferenceable(96) %this) local_unnamed_addr #4 align 2 {
entry:
  %0 = load i8, ptr %this, align 8
  %tobool.i = trunc i8 %0 to i1
  %_mp_size.i.i.i = getelementptr inbounds nuw i8, ptr %this, i64 44
  %1 = load i32, ptr %_mp_size.i.i.i, align 4
  %cmp6.i.not.i.i = icmp eq i32 %1, 0
  %2 = select i1 %tobool.i, i1 %cmp6.i.not.i.i, i1 false
  ret i1 %2
}